(lp0
ccopy_reg
_reconstructor
p1
(cinspyred.ec.ec
Individual
p2
c__builtin__
object
p3
Ntp4
Rp5
(dp6
S'_candidate'
p7
(lp8
(lp9
I9
aI40
aaI6
aI39
a(lp10
F0.3650561513056474
aF-0.4705264181255886
aF0.12075143066869809
aF-0.22494400977692064
aF-0.5682401596684745
aF-0.5849726644174371
aF0.42145050525286654
aF-0.7293499389263443
aF-0.13128048618773058
aasS'maximize'
p11
I01
sS'birthdate'
p12
F1359584418.631544
sS'fitness'
p13
cnumpy.core.multiarray
scalar
p14
(cnumpy
dtype
p15
(S'f8'
p16
I0
I1
tp17
Rp18
(I3
S'<'
p19
NNNI-1
I-1
I0
tp20
bS'q\xa3y\tO\x93\n@'
p21
tp22
Rp23
sbag1
(g2
g3
Ntp24
Rp25
(dp26
g7
(lp27
(lp28
I9
aI40
aaI6
aI39
a(lp29
F0.32679539231307336
aF-0.6430161256002478
aF0.0710122917214796
aF-0.18176990328741646
aF-0.543574717473378
aF-0.5252177991039801
aF0.49179465637528424
aF-0.4853716535970273
aF-0.06795134711147087
aasg11
I01
sg12
F1359584455.74184
sg13
g14
(g18
S'\xa4\xd6\xac<\x82\xc6\x01@'
p30
tp31
Rp32
sbag1
(g2
g3
Ntp33
Rp34
(dp35
g7
(lp36
(lp37
I9
aI40
aaI14
aI15
a(lp38
F0.0354284480459504
aF-0.6676427404330767
aF0.151340882801849
aF0.03939889239643346
aF-0.5622194216488782
aF-0.24536365957187084
aF0.42387597338650773
aF-0.314339317527458
aF0.18401977490186017
aasg11
I01
sg12
F1359584523.212936
sg13
g14
(g18
S'q\xa3y\tO\x93\n@'
p39
tp40
Rp41
sbag1
(g2
g3
Ntp42
Rp43
(dp44
g7
(lp45
(lp46
I9
aI40
aaI12
aI12
a(lp47
F0.5613865911282075
aF-0.580145326070726
aF0.1463852548061922
aF-0.04421221725654617
aF-0.45892987087363263
aF-0.33113356627557133
aF0.9107394174592253
aF-0.3733600891850347
aF-0.1136001461705965
aasg11
I01
sg12
F1359584558.545461
sg13
g14
(g18
S'q\xa3y\tO\x93\n@'
p48
tp49
Rp50
sbag1
(g2
g3
Ntp51
Rp52
(dp53
g7
(lp54
(lp55
I9
aI40
aaI18
aI9
a(lp56
F0.5662221765155855
aF-0.6080794917170859
aF-0.08912599133588842
aF0.13626642676587816
aF-0.34800496059363895
aF-0.7673974819710367
aF1.063317920443654
aF-0.878234362638156
aF0.3043539710113569
aasg11
I01
sg12
F1359584593.15824
sg13
g14
(g18
S'q\xa3y\tO\x93\n@'
p57
tp58
Rp59
sbag1
(g2
g3
Ntp60
Rp61
(dp62
g7
(lp63
(lp64
I9
aI40
aaI17
aI42
a(lp65
F0.4084039086418068
aF0.14611278263369026
aF-0.34578595595222433
aF0.1455950179225839
aF0.07469049497777298
aF-1.023243152230714
aF0.32289156450896356
aF-0.7360574261885566
aF0.08889983079078227
aasg11
I01
sg12
F1359584628.145574
sg13
g14
(g18
S'q\xa3y\tO\x93\n@'
p66
tp67
Rp68
sbag1
(g2
g3
Ntp69
Rp70
(dp71
g7
(lp72
(lp73
I9
aI40
aaI9
aI42
a(lp74
F0.5128170965997257
aF0.21842461550689352
aF-0.2773193939954374
aF0.2771905915002363
aF0.09662764945005003
aF-0.8537644225762984
aF0.34390382590593893
aF-0.39705295049505285
aF0.06513231385154762
aasg11
I01
sg12
F1359584660.43832
sg13
g14
(g18
S'q\xa3y\tO\x93\x02@'
p75
tp76
Rp77
sbag1
(g2
g3
Ntp78
Rp79
(dp80
g7
(lp81
(lp82
I36
aI9
aaI24
aI17
a(lp83
F0.563821431823731
aF0.5016928946050101
aF-0.4210218763073239
aF0.3270086256888402
aF0.09166775088275242
aF-0.7431576727250468
aF0.4480590433300644
aF-0.4986054988399074
aF-0.137413074739218
aasg11
I01
sg12
F1359584693.327862
sg13
g14
(g18
S'\xd7\t\xe0o\xb5\xf9\x08@'
p84
tp85
Rp86
sbag1
(g2
g3
Ntp87
Rp88
(dp89
g7
(lp90
(lp91
I36
aI9
aaI10
aI17
a(lp92
F0.656388743330509
aF0.30901076001705036
aF-0.3897214482396767
aF0.4484663350159073
aF-0.05092669325851257
aF-0.7941593416780242
aF0.3345978003075262
aF-0.4548200591805957
aF-0.17468085099580416
aasg11
I01
sg12
F1359584729.407323
sg13
g14
(g18
S'q\xa3y\tO\x93\x02@'
p93
tp94
Rp95
sba.