(lp0
ccopy_reg
_reconstructor
p1
(cinspyred.ec.ec
Individual
p2
c__builtin__
object
p3
Ntp4
Rp5
(dp6
S'_candidate'
p7
(lp8
I1
ag1
(g2
g3
Ntp9
Rp10
(dp11
g7
(lp12
(lp13
I36
aI34
aaI7
aI37
a(lp14
F-1.5754213967918695
aF1.1579930892303745
aF1.9882158040427655
aF-0.38008268930246136
aF-0.5105734388867331
aF2.051100874070249
aF0.8073803651363094
aF0.15578219742238691
aF-1.7892952214930335
aasS'maximize'
p15
I01
sS'birthdate'
p16
F1359683401.852573
sS'fitness'
p17
cnumpy.core.multiarray
scalar
p18
(cnumpy
dtype
p19
(S'f8'
p20
I0
I1
tp21
Rp22
(I3
S'<'
p23
NNNI-1
I-1
I0
tp24
bS'\xa4\xd6\xac<\x82\xc6\t@'
p25
tp26
Rp27
sbag1
(g2
g3
Ntp28
Rp29
(dp30
g7
(lp31
(lp32
I37
aI38
aaI3
aI36
a(lp33
F-0.8628584352745704
aF-0.15218778099279523
aF-0.2233553337450924
aF0.5182216468949261
aF0.034904779603496146
aF1.3719171535087507
aF-0.7844514532421016
aF1.2938517473979023
aF0.0350624922960132
aasg15
I01
sg16
F1359677269.346345
sg17
g18
(g22
S'q\xa3y\tO\x93\n@'
p34
tp35
Rp36
sbasg15
I01
sg16
F1359702488.084482
sg17
g18
(g22
S'\xd1\x1d\x07\xee9\x9d\x0b@'
p37
tp38
Rp39
sba.