(lp0
ccopy_reg
_reconstructor
p1
(cinspyred.ec.ec
Individual
p2
c__builtin__
object
p3
Ntp4
Rp5
(dp6
S'_candidate'
p7
(lp8
(lp9
I23
aI42
aaI7
aI36
a(lp10
F-0.4386696265721475
aF-0.10825182034283909
aF0.6483814105073022
aF0.02617942386371075
aF-0.7822597978508454
aF-0.0900531103764386
aF-0.11514568963520233
aF-0.29007745328352286
aF-0.6751132154786645
aasS'maximize'
p11
I01
sS'birthdate'
p12
F1359594158.109642
sS'fitness'
p13
cnumpy.core.multiarray
scalar
p14
(cnumpy
dtype
p15
(S'f8'
p16
I0
I1
tp17
Rp18
(I3
S'<'
p19
NNNI-1
I-1
I0
tp20
bS'q\xa3y\tO\x93\n@'
p21
tp22
Rp23
sbag1
(g2
g3
Ntp24
Rp25
(dp26
g7
(lp27
(lp28
I5
aI39
aaI11
aI39
a(lp29
F0.5219942191322857
aF-0.9803371210015049
aF0.2082929287755237
aF-0.6013801813760196
aF-0.6101912720807346
aF-0.5339407853866145
aF-0.6450627212270362
aF0.5469882164537784
aF0.6190410180249657
aasg11
I01
sg12
F1359594249.246135
sg13
g14
(g18
S'q\xa3y\tO\x93\n@'
p30
tp31
Rp32
sbag1
(g2
g3
Ntp33
Rp34
(dp35
g7
(lp36
(lp37
I37
aI28
aaI4
aI5
a(lp38
F0.8993492981558568
aF-1.4808033427928526
aF0.5790059112047907
aF-0.5549137782411827
aF-0.30425142521016174
aF-0.6031474065979363
aF-0.5037296899778005
aF0.9563763262934983
aF0.36282170751577514
aasg11
I01
sg12
F1359594518.311052
sg13
g14
(g18
S'n\xad!d\xe8+\x05@'
p39
tp40
Rp41
sbag1
(g2
g3
Ntp42
Rp43
(dp44
g7
(lp45
(lp46
I37
aI28
aaI4
aI42
a(lp47
F1.0013781952404315
aF-1.3826976194803062
aF0.49733356767412
aF-0.4665148453664415
aF-0.46533399246081647
aF-0.5377844447852309
aF-0.5821822045561734
aF0.4792516781772897
aF0.571643095285195
aasg11
I01
sg12
F1359594613.994607
sg13
g14
(g18
S'q\xa3y\tO\x93\x06@'
p48
tp49
Rp50
sbag1
(g2
g3
Ntp51
Rp52
(dp53
g7
(lp54
(lp55
I12
aI42
aaI21
aI43
a(lp56
F1.921083009988478
aF-0.8835790125737204
aF0.599366916579602
aF-0.1894385374557686
aF0.3113855953595416
aF-0.34208409034447085
aF-0.9208388352507553
aF0.9523227262300933
aF1.1866163025184822
aasg11
I01
sg12
F1359594869.993422
sg13
g14
(g18
S'q\xa3y\tO\x93\n@'
p57
tp58
Rp59
sbag1
(g2
g3
Ntp60
Rp61
(dp62
g7
(lp63
(lp64
I42
aI19
aaI15
aI10
a(lp65
F2.230496877014744
aF-0.6563984255506586
aF0.3590266696126787
aF-0.7988054318783859
aF0.2966670723360014
aF-0.3835350535188642
aF-1.3541503429713548
aF0.6277848099691513
aF0.3508317572437825
aasg11
I01
sg12
F1359594950.126376
sg13
g14
(g18
S'q\xa3y\tO\x93\n@'
p66
tp67
Rp68
sbag1
(g2
g3
Ntp69
Rp70
(dp71
g7
(lp72
(lp73
I42
aI19
aaI21
aI20
a(lp74
F1.6842805172423714
aF-0.9381971326069061
aF0.44035548384868195
aF-0.6716136679956687
aF-0.004907525700023528
aF0.12650110780090543
aF-1.0025284907309704
aF0.40686891148858556
aF1.1122522148062721
aasg11
I01
sg12
F1359595031.443877
sg13
g14
(g18
S'\n=\x13\xa3\xe8,\x08@'
p75
tp76
Rp77
sbag1
(g2
g3
Ntp78
Rp79
(dp80
g7
(lp81
(lp82
I42
aI20
aaI0
aI41
a(lp83
F1.4487922863480212
aF-0.985281399908541
aF0.012614282786542835
aF-0.045628286889002195
aF0.1792508973266592
aF0.8141534363886597
aF-0.8609977068088048
aF0.18980897849812098
aF0.9744088053482546
aasg11
I01
sg12
F1359595191.988373
sg13
g14
(g18
S'q\xa3y\tO\x93\n@'
p84
tp85
Rp86
sbag1
(g2
g3
Ntp87
Rp88
(dp89
g7
(lp90
(lp91
I33
aI43
aaI16
aI37
a(lp92
F1.4331407666999163
aF-0.49941129472438983
aF-0.20248828591751314
aF0.4667034097124467
aF0.7601976797927131
aF0.35117874325711185
aF-1.0008072698358972
aF0.9598590617885976
aF0.7262230996096092
aasg11
I01
sg12
F1359595272.749538
sg13
g14
(g18
S'q\xa3y\tO\x93\n@'
p93
tp94
Rp95
sbag1
(g2
g3
Ntp96
Rp97
(dp98
g7
(lp99
(lp100
I4
aI36
aaI21
aI19
a(lp101
F1.1076569499408655
aF-1.0227231802443155
aF-0.27440080049987714
aF0.7412866099652757
aF0.8775582134183203
aF0.4277295179186611
aF-0.29065905521322966
aF1.0170954303721644
aF1.097087905245521
aasg11
I01
sg12
F1359595433.276208
sg13
g14
(g18
S'\xd7\t\xe0o\xb5\xf9\x08@'
p102
tp103
Rp104
sbag1
(g2
g3
Ntp105
Rp106
(dp107
g7
(lp108
(lp109
I4
aI36
aaI18
aI15
a(lp110
F0.9220714955093271
aF-1.2300418210467685
aF-0.3394921463991028
aF0.5837130325676536
aF0.7992338929507483
aF1.2741191872024031
aF-0.3396542208327482
aF1.0536022868807413
aF0.9981464568165977
aasg11
I01
sg12
F1359595513.716016
sg13
g14
(g18
S'\xa4\xd6\xac<\x82\xc6\x05@'
p111
tp112
Rp113
sbag1
(g2
g3
Ntp114
Rp115
(dp116
g7
(lp117
(lp118
I4
aI36
aaI17
aI17
a(lp119
F2.3116527304876815
aF-0.49979963723202747
aF-1.3386826676514922
aF0.06881478955308272
aF0.3933669782853319
aF0.7622697474941361
aF0.06831023554737241
aF0.06107987228812409
aF0.8316339498533192
aasg11
I01
sg12
F1359595674.244778
sg13
g14
(g18
S'q\xa3y\tO\x93\n@'
p120
tp121
Rp122
sbag1
(g2
g3
Ntp123
Rp124
(dp125
g7
(lp126
(lp127
I4
aI36
aaI3
aI40
a(lp128
F1.7630821117404
aF-0.5671665990460768
aF-1.386194459591911
aF0.2643780226796544
aF0.24790963789261034
aF0.5357272704549135
aF-0.28716132135789374
aF-0.07088242134324921
aF0.549894986956343
aasg11
I01
sg12
F1359595838.026666
sg13
g14
(g18
S'q\xa3y\tO\x93\n@'
p129
tp130
Rp131
sbag1
(g2
g3
Ntp132
Rp133
(dp134
g7
(lp135
(lp136
I25
aI41
aaI11
aI1
a(lp137
F2.5428972509022243
aF-0.47106802690965427
aF-1.18872643548782
aF0.3924648185290843
aF0.4903639911235063
aF0.8693996522895536
aF-0.2469922732518109
aF-0.14420247149264892
aF0.39018262198544035
aasg11
I01
sg12
F1359595918.670421
sg13
g14
(g18
S'\n=\x13\xa3\xe8,\x08@'
p138
tp139
Rp140
sbag1
(g2
g3
Ntp141
Rp142
(dp143
g7
(lp144
(lp145
I1
aI17
aaI17
aI14
a(lp146
F2.5781568782315034
aF-0.4829511968813844
aF-1.1758450096214268
aF0.6005940401184658
aF0.26824168855525177
aF0.9539152757958937
aF-0.0022789715595782495
aF-0.29666313362852353
aF0.47916733967250624
aasg11
I01
sg12
F1359595999.006149
sg13
g14
(g18
S'\xa4\xd6\xac<\x82\xc6\t@'
p147
tp148
Rp149
sbag1
(g2
g3
Ntp150
Rp151
(dp152
g7
(lp153
(lp154
I4
aI36
aaI6
aI12
a(lp155
F1.631598560452897
aF-0.8692924291206608
aF-1.4298759863352022
aF0.9502076188359239
aF-0.3107334402505038
aF1.4939796563064671
aF-0.39083211908824733
aF-0.8014029428816958
aF0.5022005600151731
aasg11
I01
sg12
F1359596079.112349
sg13
g14
(g18
S'q\xa3y\tO\x93\n@'
p156
tp157
Rp158
sbag1
(g2
g3
Ntp159
Rp160
(dp161
g7
(lp162
(lp163
I19
aI9
aaI13
aI8
a(lp164
F1.5611449303624312
aF-0.47681776292356504
aF-1.5339333985492312
aF0.5915096310329123
aF0.3651423054530883
aF1.3459139169035708
aF-1.3808070999145061
aF-0.8050245879089798
aF1.100539077604632
aasg11
I01
sg12
F1359596159.726075
sg13
g14
(g18
S'q\xa3y\tO\x93\n@'
p165
tp166
Rp167
sbag1
(g2
g3
Ntp168
Rp169
(dp170
g7
(lp171
(lp172
I25
aI12
aaI13
aI9
a(lp173
F1.496544795326145
aF-0.5863843988293048
aF-1.5255395932676394
aF0.7938456379359484
aF0.5466290460731525
aF1.264247772660852
aF-1.1855643134588774
aF-0.5653613854086634
aF1.0635017028843765
aasg11
I01
sg12
F1359596240.709071
sg13
g14
(g18
S'\xa4\xd6\xac<\x82\xc6\t@'
p174
tp175
Rp176
sbag1
(g2
g3
Ntp177
Rp178
(dp179
g7
(lp180
(lp181
I25
aI12
aaI23
aI11
a(lp182
F1.7858053856494964
aF-0.6822630070689157
aF-1.5431682007165655
aF0.7223288715818038
aF0.5866264567298907
aF1.3802897941177807
aF-1.076727394150646
aF-0.37871979249096976
aF1.0401291268591157
aasg11
I01
sg12
F1359596321.21706
sg13
g14
(g18
S'q\xa3y\tO\x93\n@'
p183
tp184
Rp185
sbag1
(g2
g3
Ntp186
Rp187
(dp188
g7
(lp189
(lp190
I43
aI10
aaI15
aI13
a(lp191
F2.3976599950607236
aF-0.8862231962076246
aF-2.104032278458949
aF1.6835549209286658
aF0.7755910135950573
aF1.4625014346394711
aF-1.1913175969618992
aF-0.768941064755919
aF0.5599217253133634
aasg11
I01
sg12
F1359597052.44165
sg13
g14
(g18
S'\xa4\xd6\xac<\x82\xc6\t@'
p192
tp193
Rp194
sbag1
(g2
g3
Ntp195
Rp196
(dp197
g7
(lp198
(lp199
I14
aI13
aaI5
aI16
a(lp200
F1.858774970891292
aF-0.8996002383006859
aF-1.994410627938994
aF1.0135504714664396
aF1.2265497178056952
aF1.0287779945957485
aF-0.5466326699031643
aF-0.3970587342350927
aF-0.13286090641515028
aasg11
I01
sg12
F1359597532.856842
sg13
g14
(g18
S'\n=\x13\xa3\xe8,\x04@'
p201
tp202
Rp203
sbag1
(g2
g3
Ntp204
Rp205
(dp206
g7
(lp207
(lp208
I28
aI40
aaI8
aI18
a(lp209
F2.615051032405561
aF-0.7697154597632089
aF-3.8896532996046
aF1.65614601881602
aF0.2358211492461818
aF0.7806193676537858
aF-0.8910387142697236
aF-1.276909437955919
aF0.40527462771660216
aasg11
I01
sg12
F1359598892.414937
sg13
g14
(g18
S'n\xad!d\xe8+\x05@'
p210
tp211
Rp212
sbag1
(g2
g3
Ntp213
Rp214
(dp215
g7
(lp216
(lp217
I36
aI29
aaI12
aI0
a(lp218
F1.675049202145121
aF-1.527701863218201
aF-5.600020834469136
aF0.6586006864822409
aF-0.4800147459021703
aF1.5983621074489889
aF-1.5914988560441756
aF-1.2243805235807261
aF-1.2032801098259178
aasg11
I01
sg12
F1359599853.988218
sg13
g14
(g18
S'\xd7\t\xe0o\xb5\xf9\x08@'
p219
tp220
Rp221
sba.