(lp0
ccopy_reg
_reconstructor
p1
(cinspyred.ec.ec
Individual
p2
c__builtin__
object
p3
Ntp4
Rp5
(dp6
S'_candidate'
p7
(lp8
(lp9
I13
aI23
aaI19
aI15
a(lp10
F0.045324771120538454
aF0.3915631502729746
aF-0.7752692072756955
aF0.9545287676443366
aF0.19264769499668088
aF0.37883891118727897
aF0.9881528309723075
aF-0.4746983653509278
aF0.8090107039859027
aasS'maximize'
p11
I01
sS'birthdate'
p12
F1359672871.100794
sS'fitness'
p13
cnumpy.core.multiarray
scalar
p14
(cnumpy
dtype
p15
(S'f8'
p16
I0
I1
tp17
Rp18
(I3
S'<'
p19
NNNI-1
I-1
I0
tp20
bS')`B\x03<h\x08@'
p21
tp22
Rp23
sbag1
(g2
g3
Ntp24
Rp25
(dp26
g7
(lp27
(lp28
I8
aI16
aaI1
aI10
a(lp29
F0.011536779113622176
aF-0.9593852260760801
aF1.0023314171679072
aF0.6502410041947612
aF-0.1770236180366338
aF0.8074495565042767
aF-0.4688945917369768
aF0.8483651075111088
aF0.21612014986845862
aasg11
I01
sg12
F1359673172.721296
sg13
g14
(g18
S'q\xa3y\tO\x93\n@'
p30
tp31
Rp32
sbag1
(g2
g3
Ntp33
Rp34
(dp35
g7
(lp36
(lp37
I8
aI16
aaI12
aI14
a(lp38
F-0.03466232952838395
aF-0.4215347606813774
aF0.967569848843285
aF0.6909435902643676
aF-0.4660389365165265
aF1.328553466100045
aF-0.5590209457144625
aF1.8836157919407364
aF0.2555872215857567
aasg11
I01
sg12
F1359674055.001021
sg13
g14
(g18
S'q\xa3y\tO\x93\n@'
p39
tp40
Rp41
sbag1
(g2
g3
Ntp42
Rp43
(dp44
g7
(lp45
(lp46
I9
aI29
aaI24
aI43
a(lp47
F-0.15089123088185374
aF-0.6985245867027359
aF0.15671617519002756
aF0.8315779072887799
aF-0.018333893778648136
aF0.5773876520275101
aF-0.9651091654521556
aF1.1326803859752532
aF0.43043962968298966
aasg11
I01
sg12
F1359675232.124516
sg13
g14
(g18
S'3\x9d\xb2V\xb5_\t@'
p48
tp49
Rp50
sbag1
(g2
g3
Ntp51
Rp52
(dp53
g7
(lp54
(lp55
I9
aI29
aaI15
aI13
a(lp56
F-0.8332703938812255
aF-0.9182041203054444
aF0.38340403783704247
aF0.9044866580592049
aF0.1547514961155742
aF0.9079570367976612
aF-1.4355191500219957
aF1.030921716594548
aF0.7811390109819095
aasg11
I01
sg12
F1359675813.827148
sg13
g14
(g18
S'\xc8\xf7;\xd5\x14-\t@'
p57
tp58
Rp59
sbag1
(g2
g3
Ntp60
Rp61
(dp62
g7
(lp63
(lp64
I37
aI38
aaI3
aI36
a(lp65
F-0.8628584352745704
aF-0.15218778099279523
aF-0.2233553337450924
aF0.5182216468949261
aF0.034904779603496146
aF1.3719171535087507
aF-0.7844514532421016
aF1.2938517473979023
aF0.0350624922960132
aasg11
I01
sg12
F1359677269.346345
sg13
g14
(g18
S'q\xa3y\tO\x93\n@'
p66
tp67
Rp68
sbag1
(g2
g3
Ntp69
Rp70
(dp71
g7
(lp72
(lp73
I1
aI41
aaI22
aI41
a(lp74
F-0.782719330134747
aF0.4360803314509535
aF-0.3309462130191304
aF0.9172670798477575
aF-0.4039330037677024
aF1.767518637760146
aF-0.5224803509548421
aF1.2648009946217549
aF-0.4150908508824388
aasg11
I01
sg12
F1359678142.086596
sg13
g14
(g18
S'q\xa3y\tO\x93\n@'
p75
tp76
Rp77
sbag1
(g2
g3
Ntp78
Rp79
(dp80
g7
(lp81
(lp82
I11
aI22
aaI7
aI8
a(lp83
F-0.9845124674691126
aF0.8625819921993273
aF1.952186069820233
aF-0.34448055717188514
aF-0.7924548899080829
aF1.2300366785291386
aF0.7274983829998591
aF-0.5383821717439614
aF-1.206842219049683
aasg11
I01
sg12
F1359683111.396226
sg13
g14
(g18
S'j\xac\xc9v\xf5\xbf\x08@'
p84
tp85
Rp86
sbag1
(g2
g3
Ntp87
Rp88
(dp89
g7
(lp90
(lp91
I36
aI34
aaI7
aI37
a(lp92
F-1.5754213967918695
aF1.1579930892303745
aF1.9882158040427655
aF-0.38008268930246136
aF-0.5105734388867331
aF2.051100874070249
aF0.8073803651363094
aF0.15578219742238691
aF-1.7892952214930335
aasg11
I01
sg12
F1359683401.852573
sg13
g14
(g18
S'\xa4\xd6\xac<\x82\xc6\t@'
p93
tp94
Rp95
sba.